target datalayout = "e-m:e-p270:32:32-p271:32:32-p272:64:64-i64:64-i128:128-f80:128-n8:16:32:64-S128"
target triple = "x86_64-pc-linux-gnu"

%union.pthread_mutex_t = type { %struct.__pthread_mutex_s }
%struct.__pthread_mutex_s = type { i32, i32, i32, i32, i32, i16, i16, %struct.__pthread_internal_list }
%struct.__pthread_internal_list = type { ptr, ptr }
%union.pthread_cond_t = type { %struct.__pthread_cond_s }
%struct.__pthread_cond_s = type { %union.__atomic_wide_counter, %union.__atomic_wide_counter, [2 x i32], [2 x i32], i32, i32, [2 x i32] }
%union.__atomic_wide_counter = type { i64 }
%struct.uv__work = type { ptr, ptr, ptr, [2 x ptr] }
%struct.uv_loop_s = type { ptr, i32, [2 x ptr], %union.anon, ptr, i32, i64, i32, [2 x ptr], [2 x ptr], ptr, i32, i32, [2 x ptr], %union.pthread_mutex_t, %struct.uv_async_s, %union.pthread_rwlock_t, ptr, [2 x ptr], [2 x ptr], [2 x ptr], [2 x ptr], [2 x ptr], ptr, %struct.uv__io_s, i32, %struct.anon.1, i64, i64, [2 x i32], %struct.uv__io_s, %struct.uv_signal_s, i32, %struct.uv__io_s, ptr, i32 }
%union.anon = type { ptr }
%struct.uv_async_s = type { ptr, ptr, i32, ptr, [2 x ptr], %union.anon.0, ptr, i32, ptr, [2 x ptr], i32 }
%union.anon.0 = type { [4 x ptr] }
%union.pthread_rwlock_t = type { %struct.__pthread_rwlock_arch_t }
%struct.__pthread_rwlock_arch_t = type { i32, i32, i32, i32, i32, i32, i32, i32, i8, [7 x i8], i64, i32 }
%struct.anon.1 = type { ptr, i32 }
%struct.uv_signal_s = type { ptr, ptr, i32, ptr, [2 x ptr], %union.anon.2, ptr, i32, ptr, i32, %struct.anon.3, i32, i32 }
%union.anon.2 = type { [4 x ptr] }
%struct.anon.3 = type { ptr, ptr, ptr, i32 }
%struct.uv__io_s = type { ptr, [2 x ptr], [2 x ptr], i32, i32, i32 }

@nthreads = internal global i32 0, align 4
@exit_message = internal global [2 x ptr] zeroinitializer, align 16
@mutex = internal global %union.pthread_mutex_t zeroinitializer, align 8
@cond = internal global %union.pthread_cond_t zeroinitializer, align 8
@slow_io_pending_wq = internal global [2 x ptr] zeroinitializer, align 16
@run_slow_work_message = internal global [2 x ptr] zeroinitializer, align 16
@wq = internal global [2 x ptr] zeroinitializer, align 16
@idle_threads = internal global i32 0, align 4
@slow_io_work_running = internal global i32 0, align 4

; Function Attrs: nounwind uwtable
define internal i32 @slow_work_thread_threshold() #0 {
  %1 = load i32, ptr @nthreads, align 4, !tbaa !4
  %2 = add i32 %1, 1
  %3 = udiv i32 %2, 2
  ret i32 %3
}

; Function Attrs: nounwind uwtable
define internal void @worker(ptr noundef %0) #0 {
  %2 = alloca ptr, align 8
  %3 = alloca ptr, align 8
  %4 = alloca ptr, align 8
  %5 = alloca i32, align 4
  store ptr %0, ptr %2, align 8, !tbaa !13
  call void @llvm.lifetime.start.p0(i64 8, ptr %3) #7
  call void @llvm.lifetime.start.p0(i64 8, ptr %4) #7
  call void @llvm.lifetime.start.p0(i64 4, ptr %5) #7
  %6 = load ptr, ptr %2, align 8, !tbaa !13
  call void @uv_sem_post(ptr noundef %6)
  store ptr null, ptr %2, align 8, !tbaa !13
  call void @uv_mutex_lock(ptr noundef @mutex)
  br label %7

7:                                                ; preds = %191, %86, %82, %1
  br label %8

8:                                                ; preds = %25, %7
  %9 = load ptr, ptr @wq, align 16, !tbaa !13
  %10 = icmp eq ptr @wq, %9
  br i1 %10, label %23, label %11

11:                                               ; preds = %8
  %12 = load ptr, ptr @wq, align 16, !tbaa !13
  %13 = icmp eq ptr %12, @run_slow_work_message
  br i1 %13, label %14, label %21

14:                                               ; preds = %11
  %15 = load ptr, ptr @run_slow_work_message, align 16, !tbaa !13
  %16 = icmp eq ptr %15, @wq
  br i1 %16, label %17, label %21

17:                                               ; preds = %14
  %18 = load i32, ptr @slow_io_work_running, align 4, !tbaa !4
  %19 = call i32 @slow_work_thread_threshold()
  %20 = icmp uge i32 %18, %19
  br label %21

21:                                               ; preds = %17, %14, %11
  %22 = phi i1 [ false, %14 ], [ false, %11 ], [ %20, %17 ]
  br label %23

23:                                               ; preds = %21, %8
  %24 = phi i1 [ true, %8 ], [ %22, %21 ]
  br i1 %24, label %25, label %30

25:                                               ; preds = %23
  %26 = load i32, ptr @idle_threads, align 4, !tbaa !4
  %27 = add i32 %26, 1
  store i32 %27, ptr @idle_threads, align 4, !tbaa !4
  call void @uv_cond_wait(ptr noundef @cond, ptr noundef @mutex)
  %28 = load i32, ptr @idle_threads, align 4, !tbaa !4
  %29 = sub i32 %28, 1
  store i32 %29, ptr @idle_threads, align 4, !tbaa !4
  br label %8, !llvm.loop !57

30:                                               ; preds = %23
  %31 = load ptr, ptr @wq, align 16, !tbaa !13
  store ptr %31, ptr %4, align 8, !tbaa !13
  %32 = load ptr, ptr %4, align 8, !tbaa !13
  %33 = icmp eq ptr %32, @exit_message
  br i1 %33, label %34, label %35

34:                                               ; preds = %30
  call void @uv_cond_signal(ptr noundef @cond)
  call void @uv_mutex_unlock(ptr noundef @mutex)
  br label %192

35:                                               ; preds = %30
  br label %36

36:                                               ; preds = %35
  %37 = load ptr, ptr %4, align 8, !tbaa !13
  %38 = getelementptr inbounds [2 x ptr], ptr %37, i64 0, i64 0
  %39 = load ptr, ptr %38, align 8, !tbaa !13
  %40 = load ptr, ptr %4, align 8, !tbaa !13
  %41 = getelementptr inbounds [2 x ptr], ptr %40, i64 0, i64 1
  %42 = load ptr, ptr %41, align 8, !tbaa !13
  %43 = getelementptr inbounds [2 x ptr], ptr %42, i64 0, i64 0
  store ptr %39, ptr %43, align 8, !tbaa !13
  %44 = load ptr, ptr %4, align 8, !tbaa !13
  %45 = getelementptr inbounds [2 x ptr], ptr %44, i64 0, i64 1
  %46 = load ptr, ptr %45, align 8, !tbaa !13
  %47 = load ptr, ptr %4, align 8, !tbaa !13
  %48 = getelementptr inbounds [2 x ptr], ptr %47, i64 0, i64 0
  %49 = load ptr, ptr %48, align 8, !tbaa !13
  %50 = getelementptr inbounds [2 x ptr], ptr %49, i64 0, i64 1
  store ptr %46, ptr %50, align 8, !tbaa !13
  br label %51

51:                                               ; preds = %36
  br label %52

52:                                               ; preds = %51
  br label %53

53:                                               ; preds = %52
  %54 = load ptr, ptr %4, align 8, !tbaa !13
  %55 = load ptr, ptr %4, align 8, !tbaa !13
  %56 = getelementptr inbounds [2 x ptr], ptr %55, i64 0, i64 0
  store ptr %54, ptr %56, align 8, !tbaa !13
  %57 = load ptr, ptr %4, align 8, !tbaa !13
  %58 = load ptr, ptr %4, align 8, !tbaa !13
  %59 = getelementptr inbounds [2 x ptr], ptr %58, i64 0, i64 1
  store ptr %57, ptr %59, align 8, !tbaa !13
  br label %60

60:                                               ; preds = %53
  br label %61

61:                                               ; preds = %60
  store i32 0, ptr %5, align 4, !tbaa !4
  %62 = load ptr, ptr %4, align 8, !tbaa !13
  %63 = icmp eq ptr %62, @run_slow_work_message
  br i1 %63, label %64, label %131

64:                                               ; preds = %61
  %65 = load i32, ptr @slow_io_work_running, align 4, !tbaa !4
  %66 = call i32 @slow_work_thread_threshold()
  %67 = icmp uge i32 %65, %66
  br i1 %67, label %68, label %83

68:                                               ; preds = %64
  br label %69

69:                                               ; preds = %68
  %70 = load ptr, ptr %4, align 8, !tbaa !13
  %71 = getelementptr inbounds [2 x ptr], ptr %70, i64 0, i64 0
  store ptr @wq, ptr %71, align 8, !tbaa !13
  %72 = load ptr, ptr getelementptr inbounds ([2 x ptr], ptr @wq, i64 0, i64 1), align 8, !tbaa !13
  %73 = load ptr, ptr %4, align 8, !tbaa !13
  %74 = getelementptr inbounds [2 x ptr], ptr %73, i64 0, i64 1
  store ptr %72, ptr %74, align 8, !tbaa !13
  %75 = load ptr, ptr %4, align 8, !tbaa !13
  %76 = load ptr, ptr %4, align 8, !tbaa !13
  %77 = getelementptr inbounds [2 x ptr], ptr %76, i64 0, i64 1
  %78 = load ptr, ptr %77, align 8, !tbaa !13
  %79 = getelementptr inbounds [2 x ptr], ptr %78, i64 0, i64 0
  store ptr %75, ptr %79, align 8, !tbaa !13
  %80 = load ptr, ptr %4, align 8, !tbaa !13
  store ptr %80, ptr getelementptr inbounds ([2 x ptr], ptr @wq, i64 0, i64 1), align 8, !tbaa !13
  br label %81

81:                                               ; preds = %69
  br label %82

82:                                               ; preds = %81
  br label %7

83:                                               ; preds = %64
  %84 = load ptr, ptr @slow_io_pending_wq, align 16, !tbaa !13
  %85 = icmp eq ptr @slow_io_pending_wq, %84
  br i1 %85, label %86, label %87

86:                                               ; preds = %83
  br label %7

87:                                               ; preds = %83
  store i32 1, ptr %5, align 4, !tbaa !4
  %88 = load i32, ptr @slow_io_work_running, align 4, !tbaa !4
  %89 = add i32 %88, 1
  store i32 %89, ptr @slow_io_work_running, align 4, !tbaa !4
  %90 = load ptr, ptr @slow_io_pending_wq, align 16, !tbaa !13
  store ptr %90, ptr %4, align 8, !tbaa !13
  br label %91

91:                                               ; preds = %87
  %92 = load ptr, ptr %4, align 8, !tbaa !13
  %93 = getelementptr inbounds [2 x ptr], ptr %92, i64 0, i64 0
  %94 = load ptr, ptr %93, align 8, !tbaa !13
  %95 = load ptr, ptr %4, align 8, !tbaa !13
  %96 = getelementptr inbounds [2 x ptr], ptr %95, i64 0, i64 1
  %97 = load ptr, ptr %96, align 8, !tbaa !13
  %98 = getelementptr inbounds [2 x ptr], ptr %97, i64 0, i64 0
  store ptr %94, ptr %98, align 8, !tbaa !13
  %99 = load ptr, ptr %4, align 8, !tbaa !13
  %100 = getelementptr inbounds [2 x ptr], ptr %99, i64 0, i64 1
  %101 = load ptr, ptr %100, align 8, !tbaa !13
  %102 = load ptr, ptr %4, align 8, !tbaa !13
  %103 = getelementptr inbounds [2 x ptr], ptr %102, i64 0, i64 0
  %104 = load ptr, ptr %103, align 8, !tbaa !13
  %105 = getelementptr inbounds [2 x ptr], ptr %104, i64 0, i64 1
  store ptr %101, ptr %105, align 8, !tbaa !13
  br label %106

106:                                              ; preds = %91
  br label %107

107:                                              ; preds = %106
  br label %108

108:                                              ; preds = %107
  %109 = load ptr, ptr %4, align 8, !tbaa !13
  %110 = load ptr, ptr %4, align 8, !tbaa !13
  %111 = getelementptr inbounds [2 x ptr], ptr %110, i64 0, i64 0
  store ptr %109, ptr %111, align 8, !tbaa !13
  %112 = load ptr, ptr %4, align 8, !tbaa !13
  %113 = load ptr, ptr %4, align 8, !tbaa !13
  %114 = getelementptr inbounds [2 x ptr], ptr %113, i64 0, i64 1
  store ptr %112, ptr %114, align 8, !tbaa !13
  br label %115

115:                                              ; preds = %108
  br label %116

116:                                              ; preds = %115
  %117 = load ptr, ptr @slow_io_pending_wq, align 16, !tbaa !13
  %118 = icmp eq ptr @slow_io_pending_wq, %117
  br i1 %118, label %130, label %119

119:                                              ; preds = %116
  br label %120

120:                                              ; preds = %119
  store ptr @wq, ptr @run_slow_work_message, align 16, !tbaa !13
  %121 = load ptr, ptr getelementptr inbounds ([2 x ptr], ptr @wq, i64 0, i64 1), align 8, !tbaa !13
  store ptr %121, ptr getelementptr inbounds ([2 x ptr], ptr @run_slow_work_message, i64 0, i64 1), align 8, !tbaa !13
  %122 = load ptr, ptr getelementptr inbounds ([2 x ptr], ptr @run_slow_work_message, i64 0, i64 1), align 8, !tbaa !13
  %123 = getelementptr inbounds [2 x ptr], ptr %122, i64 0, i64 0
  store ptr @run_slow_work_message, ptr %123, align 8, !tbaa !13
  store ptr @run_slow_work_message, ptr getelementptr inbounds ([2 x ptr], ptr @wq, i64 0, i64 1), align 8, !tbaa !13
  br label %124

124:                                              ; preds = %120
  br label %125

125:                                              ; preds = %124
  %126 = load i32, ptr @idle_threads, align 4, !tbaa !4
  %127 = icmp ugt i32 %126, 0
  br i1 %127, label %128, label %129

128:                                              ; preds = %125
  call void @uv_cond_signal(ptr noundef @cond)
  br label %129

129:                                              ; preds = %128, %125
  br label %130

130:                                              ; preds = %129, %116
  br label %131

131:                                              ; preds = %130, %61
  call void @uv_mutex_unlock(ptr noundef @mutex)
  %132 = load ptr, ptr %4, align 8, !tbaa !13
  %133 = getelementptr inbounds i8, ptr %132, i64 -24
  store ptr %133, ptr %3, align 8, !tbaa !16
  %134 = load ptr, ptr %3, align 8, !tbaa !16
  %135 = getelementptr inbounds nuw %struct.uv__work, ptr %134, i32 0, i32 0
  %136 = load ptr, ptr %135, align 8, !tbaa !20
  %137 = load ptr, ptr %3, align 8, !tbaa !16
  call void %136(ptr noundef %137)
  %138 = load ptr, ptr %3, align 8, !tbaa !16
  %139 = getelementptr inbounds nuw %struct.uv__work, ptr %138, i32 0, i32 2
  %140 = load ptr, ptr %139, align 8, !tbaa !18
  %141 = getelementptr inbounds nuw %struct.uv_loop_s, ptr %140, i32 0, i32 14
  call void @uv_mutex_lock(ptr noundef %141)
  %142 = load ptr, ptr %3, align 8, !tbaa !16
  %143 = getelementptr inbounds nuw %struct.uv__work, ptr %142, i32 0, i32 0
  store ptr null, ptr %143, align 8, !tbaa !20
  br label %144

144:                                              ; preds = %131
  %145 = load ptr, ptr %3, align 8, !tbaa !16
  %146 = getelementptr inbounds nuw %struct.uv__work, ptr %145, i32 0, i32 2
  %147 = load ptr, ptr %146, align 8, !tbaa !18
  %148 = getelementptr inbounds nuw %struct.uv_loop_s, ptr %147, i32 0, i32 13
  %149 = load ptr, ptr %3, align 8, !tbaa !16
  %150 = getelementptr inbounds nuw %struct.uv__work, ptr %149, i32 0, i32 3
  %151 = getelementptr inbounds [2 x ptr], ptr %150, i64 0, i64 0
  store ptr %148, ptr %151, align 8, !tbaa !13
  %152 = load ptr, ptr %3, align 8, !tbaa !16
  %153 = getelementptr inbounds nuw %struct.uv__work, ptr %152, i32 0, i32 2
  %154 = load ptr, ptr %153, align 8, !tbaa !18
  %155 = getelementptr inbounds nuw %struct.uv_loop_s, ptr %154, i32 0, i32 13
  %156 = getelementptr inbounds [2 x ptr], ptr %155, i64 0, i64 1
  %157 = load ptr, ptr %156, align 8, !tbaa !13
  %158 = load ptr, ptr %3, align 8, !tbaa !16
  %159 = getelementptr inbounds nuw %struct.uv__work, ptr %158, i32 0, i32 3
  %160 = getelementptr inbounds [2 x ptr], ptr %159, i64 0, i64 1
  store ptr %157, ptr %160, align 8, !tbaa !13
  %161 = load ptr, ptr %3, align 8, !tbaa !16
  %162 = getelementptr inbounds nuw %struct.uv__work, ptr %161, i32 0, i32 3
  %163 = load ptr, ptr %3, align 8, !tbaa !16
  %164 = getelementptr inbounds nuw %struct.uv__work, ptr %163, i32 0, i32 3
  %165 = getelementptr inbounds [2 x ptr], ptr %164, i64 0, i64 1
  %166 = load ptr, ptr %165, align 8, !tbaa !13
  %167 = getelementptr inbounds [2 x ptr], ptr %166, i64 0, i64 0
  store ptr %162, ptr %167, align 8, !tbaa !13
  %168 = load ptr, ptr %3, align 8, !tbaa !16
  %169 = getelementptr inbounds nuw %struct.uv__work, ptr %168, i32 0, i32 3
  %170 = load ptr, ptr %3, align 8, !tbaa !16
  %171 = getelementptr inbounds nuw %struct.uv__work, ptr %170, i32 0, i32 2
  %172 = load ptr, ptr %171, align 8, !tbaa !18
  %173 = getelementptr inbounds nuw %struct.uv_loop_s, ptr %172, i32 0, i32 13
  %174 = getelementptr inbounds [2 x ptr], ptr %173, i64 0, i64 1
  store ptr %169, ptr %174, align 8, !tbaa !13
  br label %175

175:                                              ; preds = %144
  br label %176

176:                                              ; preds = %175
  %177 = load ptr, ptr %3, align 8, !tbaa !16
  %178 = getelementptr inbounds nuw %struct.uv__work, ptr %177, i32 0, i32 2
  %179 = load ptr, ptr %178, align 8, !tbaa !18
  %180 = getelementptr inbounds nuw %struct.uv_loop_s, ptr %179, i32 0, i32 15
  %181 = call i32 @uv_async_send(ptr noundef %180)
  %182 = load ptr, ptr %3, align 8, !tbaa !16
  %183 = getelementptr inbounds nuw %struct.uv__work, ptr %182, i32 0, i32 2
  %184 = load ptr, ptr %183, align 8, !tbaa !18
  %185 = getelementptr inbounds nuw %struct.uv_loop_s, ptr %184, i32 0, i32 14
  call void @uv_mutex_unlock(ptr noundef %185)
  call void @uv_mutex_lock(ptr noundef @mutex)
  %186 = load i32, ptr %5, align 4, !tbaa !4
  %187 = icmp ne i32 %186, 0
  br i1 %187, label %188, label %191

188:                                              ; preds = %176
  %189 = load i32, ptr @slow_io_work_running, align 4, !tbaa !4
  %190 = add i32 %189, -1
  store i32 %190, ptr @slow_io_work_running, align 4, !tbaa !4
  br label %191

191:                                              ; preds = %188, %176
  br label %7

192:                                              ; preds = %34
  call void @llvm.lifetime.end.p0(i64 4, ptr %5) #7
  call void @llvm.lifetime.end.p0(i64 8, ptr %4) #7
  call void @llvm.lifetime.end.p0(i64 8, ptr %3) #7
  ret void
}