; Function Attrs: nounwind uwtable
define internal void @worker(ptr noundef %0) #0 {
  tail call void @uv_sem_post(ptr noundef %0) #9
  tail call void @uv_mutex_lock(ptr noundef nonnull @mutex) #9
  br label %.backedge

.backedge:                                        ; preds = %.backedge.backedge, %1
  %2 = load ptr, ptr @wq, align 16, !tbaa !8
  %3 = icmp eq ptr %2, @wq
  br i1 %3, label %.critedge, label %4

4:                                                ; preds = %.backedge
  %5 = icmp eq ptr %2, @run_slow_work_message
  %6 = load ptr, ptr @run_slow_work_message, align 16
  %7 = icmp eq ptr %6, @wq
  %or.cond = select i1 %5, i1 %7, i1 false
  br i1 %or.cond, label %8, label %.critedge3

8:                                                ; preds = %4
  %9 = load i32, ptr @slow_io_work_running, align 4, !tbaa !4
  %10 = load i32, ptr @nthreads, align 4, !tbaa !4
  %11 = add i32 %10, 1
  %12 = lshr i32 %11, 1
  %.not = icmp ult i32 %9, %12
  br i1 %.not, label %.critedge3.thread, label %.critedge

.critedge:                                        ; preds = %.backedge, %8
  %13 = load i32, ptr @idle_threads, align 4, !tbaa !4
  %14 = add i32 %13, 1
  store i32 %14, ptr @idle_threads, align 4, !tbaa !4
  tail call void @uv_cond_wait(ptr noundef nonnull @cond, ptr noundef nonnull @mutex) #9
  %15 = load i32, ptr @idle_threads, align 4, !tbaa !4
  %16 = add i32 %15, -1
  store i32 %16, ptr @idle_threads, align 4, !tbaa !4
  br label %.backedge.backedge

.backedge.backedge:                               ; preds = %.critedge, %49, %67, %31, %33
  br label %.backedge, !llvm.loop !31

.critedge3:                                       ; preds = %4
  %17 = icmp eq ptr %2, @exit_message
  br i1 %17, label %18, label %.critedge3..critedge3.thread_crit_edge

.critedge3..critedge3.thread_crit_edge:           ; preds = %.critedge3
  %.pre = load ptr, ptr %2, align 8, !tbaa !8
  br label %.critedge3.thread

18:                                               ; preds = %.critedge3
  tail call void @uv_cond_signal(ptr noundef nonnull @cond) #9
  tail call void @uv_mutex_unlock(ptr noundef nonnull @mutex) #9
  ret void

.critedge3.thread:                                ; preds = %8, %.critedge3..critedge3.thread_crit_edge
  %19 = phi ptr [ %.pre, %.critedge3..critedge3.thread_crit_edge ], [ @wq, %8 ]
  %20 = phi i1 [ %5, %.critedge3..critedge3.thread_crit_edge ], [ true, %8 ]
  %21 = getelementptr inbounds nuw i8, ptr %2, i64 8
  %22 = load ptr, ptr %21, align 8, !tbaa !8
  store ptr %19, ptr %22, align 8, !tbaa !8
  %23 = load ptr, ptr %21, align 8, !tbaa !8
  %24 = load ptr, ptr %2, align 8, !tbaa !8
  %25 = getelementptr inbounds nuw i8, ptr %24, i64 8
  store ptr %23, ptr %25, align 8, !tbaa !8
  store ptr %2, ptr %2, align 8, !tbaa !8
  store ptr %2, ptr %21, align 8, !tbaa !8
  br i1 %20, label %26, label %49

26:                                               ; preds = %.critedge3.thread
  %27 = load i32, ptr @slow_io_work_running, align 4, !tbaa !4
  %28 = load i32, ptr @nthreads, align 4, !tbaa !4
  %29 = add i32 %28, 1
  %30 = lshr i32 %29, 1
  %.not45 = icmp ult i32 %27, %30
  br i1 %.not45, label %33, label %31

31:                                               ; preds = %26
  store ptr @wq, ptr @run_slow_work_message, align 16, !tbaa !8
  %32 = load ptr, ptr getelementptr inbounds nuw (i8, ptr @wq, i64 8), align 8, !tbaa !8
  store ptr %32, ptr %21, align 8, !tbaa !8
  store ptr @run_slow_work_message, ptr %32, align 8, !tbaa !8
  store ptr @run_slow_work_message, ptr getelementptr inbounds nuw (i8, ptr @wq, i64 8), align 8, !tbaa !8
  br label %.backedge.backedge

33:                                               ; preds = %26
  %34 = load ptr, ptr @slow_io_pending_wq, align 16, !tbaa !8
  %35 = icmp eq ptr %34, @slow_io_pending_wq
  br i1 %35, label %.backedge.backedge, label %36

36:                                               ; preds = %33
  %37 = add nuw nsw i32 %27, 1
  store i32 %37, ptr @slow_io_work_running, align 4, !tbaa !4
  %38 = load ptr, ptr %34, align 8, !tbaa !8
  %39 = getelementptr inbounds nuw i8, ptr %34, i64 8
  %40 = load ptr, ptr %39, align 8, !tbaa !8
  store ptr %38, ptr %40, align 8, !tbaa !8
  %41 = load ptr, ptr %39, align 8, !tbaa !8
  %42 = getelementptr inbounds nuw i8, ptr %38, i64 8
  store ptr %41, ptr %42, align 8, !tbaa !8
  store ptr %34, ptr %34, align 8, !tbaa !8
  store ptr %34, ptr %39, align 8, !tbaa !8
  %43 = load ptr, ptr @slow_io_pending_wq, align 16, !tbaa !8
  %44 = icmp eq ptr %43, @slow_io_pending_wq
  br i1 %44, label %49, label %45

45:                                               ; preds = %36
  store ptr @wq, ptr @run_slow_work_message, align 16, !tbaa !8
  %46 = load ptr, ptr getelementptr inbounds nuw (i8, ptr @wq, i64 8), align 8, !tbaa !8
  store ptr %46, ptr getelementptr inbounds nuw (i8, ptr @run_slow_work_message, i64 8), align 8, !tbaa !8
  store ptr @run_slow_work_message, ptr %46, align 8, !tbaa !8
  store ptr @run_slow_work_message, ptr getelementptr inbounds nuw (i8, ptr @wq, i64 8), align 8, !tbaa !8
  %47 = load i32, ptr @idle_threads, align 4, !tbaa !4
  %.not46 = icmp eq i32 %47, 0
  br i1 %.not46, label %49, label %48

48:                                               ; preds = %45
  tail call void @uv_cond_signal(ptr noundef nonnull @cond) #9
  br label %49

49:                                               ; preds = %36, %48, %45, %.critedge3.thread
  %.042 = phi ptr [ %34, %36 ], [ %34, %48 ], [ %34, %45 ], [ %2, %.critedge3.thread ]
  tail call void @uv_mutex_unlock(ptr noundef nonnull @mutex) #9
  %50 = getelementptr inbounds i8, ptr %.042, i64 -24
  %51 = load ptr, ptr %50, align 8, !tbaa !17
  tail call void %51(ptr noundef nonnull %50) #9
  %52 = getelementptr inbounds i8, ptr %.042, i64 -8
  %53 = load ptr, ptr %52, align 8, !tbaa !14
  %54 = getelementptr inbounds nuw i8, ptr %53, i64 136
  tail call void @uv_mutex_lock(ptr noundef nonnull %54) #9
  store ptr null, ptr %50, align 8, !tbaa !17
  %55 = load ptr, ptr %52, align 8, !tbaa !14
  %56 = getelementptr inbounds nuw i8, ptr %55, i64 120
  store ptr %56, ptr %.042, align 8, !tbaa !8
  %57 = getelementptr inbounds nuw i8, ptr %55, i64 128
  %58 = load ptr, ptr %57, align 8, !tbaa !8
  %59 = getelementptr inbounds nuw i8, ptr %.042, i64 8
  store ptr %58, ptr %59, align 8, !tbaa !8
  store ptr %.042, ptr %58, align 8, !tbaa !8
  %60 = load ptr, ptr %52, align 8, !tbaa !14
  %61 = getelementptr inbounds nuw i8, ptr %60, i64 128
  store ptr %.042, ptr %61, align 8, !tbaa !8
  %62 = load ptr, ptr %52, align 8, !tbaa !14
  %63 = getelementptr inbounds nuw i8, ptr %62, i64 176
  %64 = tail call i32 @uv_async_send(ptr noundef nonnull %63) #9
  %65 = load ptr, ptr %52, align 8, !tbaa !14
  %66 = getelementptr inbounds nuw i8, ptr %65, i64 136
  tail call void @uv_mutex_unlock(ptr noundef nonnull %66) #9
  tail call void @uv_mutex_lock(ptr noundef nonnull @mutex) #9
  br i1 %20, label %67, label %.backedge.backedge

67:                                               ; preds = %49
  %68 = load i32, ptr @slow_io_work_running, align 4, !tbaa !4
  %69 = add i32 %68, -1
  store i32 %69, ptr @slow_io_work_running, align 4, !tbaa !4
  br label %.backedge.backedge
}